target datalayout = "e-m:e-p270:32:32-p271:32:32-p272:64:64-i64:64-i128:128-f80:128-n8:16:32:64-S128"
target triple = "x86_64-pc-linux-gnu"

%struct.Vec_Int_t_ = type { i32, i32, ptr }
%struct.timespec = type { i64, i64 }

@.str = private unnamed_addr constant [9 x i8] c"%02d.cnf\00", align 1
@.str.25 = private unnamed_addr constant [5 x i8] c"Time\00", align 1
@.str.38 = private unnamed_addr constant [25 x i8] c"Finished iteration %d.  \00", align 1
@.str.39 = private unnamed_addr constant [22 x i8] c"%solution is found.  \00", align 1
@.str.40 = private unnamed_addr constant [2 x i8] c"S\00", align 1
@.str.41 = private unnamed_addr constant [5 x i8] c"No s\00", align 1
@.str.42 = private unnamed_addr constant [11 x i8] c"Total time\00", align 1
@.str.43 = private unnamed_addr constant [5 x i8] c"%s =\00", align 1
@.str.44 = private unnamed_addr constant [11 x i8] c"%9.2f sec\0A\00", align 1

; Function Attrs: inlinehint nounwind uwtable
define internal void @Vec_IntFreeP(ptr noundef %0) #4 {
  %2 = alloca ptr, align 8
  store ptr %0, ptr %2, align 8, !tbaa !38
  %3 = load ptr, ptr %2, align 8, !tbaa !38
  %4 = load ptr, ptr %3, align 8, !tbaa !7
  %5 = icmp eq ptr %4, null
  br i1 %5, label %6, label %7

6:                                                ; preds = %1
  br label %32

7:                                                ; preds = %1
  %8 = load ptr, ptr %2, align 8, !tbaa !38
  %9 = load ptr, ptr %8, align 8, !tbaa !7
  %10 = getelementptr inbounds nuw %struct.Vec_Int_t_, ptr %9, i32 0, i32 2
  %11 = load ptr, ptr %10, align 8, !tbaa !40
  %12 = icmp ne ptr %11, null
  br i1 %12, label %13, label %21

13:                                               ; preds = %7
  %14 = load ptr, ptr %2, align 8, !tbaa !38
  %15 = load ptr, ptr %14, align 8, !tbaa !7
  %16 = getelementptr inbounds nuw %struct.Vec_Int_t_, ptr %15, i32 0, i32 2
  %17 = load ptr, ptr %16, align 8, !tbaa !40
  call void @free(ptr noundef %17) #12
  %18 = load ptr, ptr %2, align 8, !tbaa !38
  %19 = load ptr, ptr %18, align 8, !tbaa !7
  %20 = getelementptr inbounds nuw %struct.Vec_Int_t_, ptr %19, i32 0, i32 2
  store ptr null, ptr %20, align 8, !tbaa !40
  br label %22

21:                                               ; preds = %7
  br label %22

22:                                               ; preds = %21, %13
  %23 = load ptr, ptr %2, align 8, !tbaa !38
  %24 = load ptr, ptr %23, align 8, !tbaa !7
  %25 = icmp ne ptr %24, null
  br i1 %25, label %26, label %30

26:                                               ; preds = %22
  %27 = load ptr, ptr %2, align 8, !tbaa !38
  %28 = load ptr, ptr %27, align 8, !tbaa !7
  call void @free(ptr noundef %28) #12
  %29 = load ptr, ptr %2, align 8, !tbaa !38
  store ptr null, ptr %29, align 8, !tbaa !7
  br label %31

30:                                               ; preds = %22
  br label %31

31:                                               ; preds = %30, %26
  br label %32

32:                                               ; preds = %31, %6
  ret void
}

; Function Attrs: inlinehint nounwind uwtable
define internal void @Abc_PrintTime(i32 noundef %0, ptr noundef %1, i64 noundef %2) #4 {
  %4 = alloca i32, align 4
  %5 = alloca ptr, align 8
  %6 = alloca i64, align 8
  store i32 %0, ptr %4, align 4, !tbaa !3
  store ptr %1, ptr %5, align 8, !tbaa !12
  store i64 %2, ptr %6, align 8, !tbaa !10
  %7 = load ptr, ptr %5, align 8, !tbaa !12
  call void (i32, ptr, ...) @Abc_Print(i32 noundef 1, ptr noundef @.str.43, ptr noundef %7)
  %8 = load i64, ptr %6, align 8, !tbaa !10
  %9 = sitofp i64 %8 to double
  %10 = fmul double 1.000000e+00, %9
  %11 = fdiv double %10, 1.000000e+06
  call void (i32, ptr, ...) @Abc_Print(i32 noundef 1, ptr noundef @.str.44, double noundef %11)
  ret void
}

; Function Attrs: nounwind uwtable
define void @Cnf_SplitCnfCleanup(i32 noundef %0) #0 {
  %2 = alloca i32, align 4
  %3 = alloca [100 x i8], align 16
  %4 = alloca i32, align 4
  store i32 %0, ptr %2, align 4, !tbaa !3
  call void @llvm.lifetime.start.p0(i64 100, ptr %3) #12
  call void @llvm.lifetime.start.p0(i64 4, ptr %4) #12
  store i32 0, ptr %4, align 4, !tbaa !3
  br label %5

5:                                                ; preds = %15, %1
  %6 = load i32, ptr %4, align 4, !tbaa !3
  %7 = load i32, ptr %2, align 4, !tbaa !3
  %8 = icmp slt i32 %6, %7
  br i1 %8, label %9, label %18

9:                                                ; preds = %5
  %10 = getelementptr inbounds [100 x i8], ptr %3, i64 0, i64 0
  %11 = load i32, ptr %4, align 4, !tbaa !3
  %12 = call i32 (ptr, ptr, ...) @sprintf(ptr noundef %10, ptr noundef @.str, i32 noundef %11) #12
  %13 = getelementptr inbounds [100 x i8], ptr %3, i64 0, i64 0
  %14 = call i32 @unlink(ptr noundef %13) #12
  br label %15

15:                                               ; preds = %9
  %16 = load i32, ptr %4, align 4, !tbaa !3
  %17 = add nsw i32 %16, 1
  store i32 %17, ptr %4, align 4, !tbaa !3
  br label %5, !llvm.loop !142

18:                                               ; preds = %5
  call void @llvm.lifetime.end.p0(i64 4, ptr %4) #12
  call void @llvm.lifetime.end.p0(i64 100, ptr %3) #12
  ret void
}

; Function Attrs: inlinehint nounwind uwtable
define internal i64 @Abc_Clock() #4 {
  %1 = alloca i64, align 8
  %2 = alloca %struct.timespec, align 8
  %3 = alloca i32, align 4
  %4 = alloca i64, align 8
  call void @llvm.lifetime.start.p0(i64 16, ptr %2) #12
  %5 = call i32 @clock_gettime(i32 noundef 1, ptr noundef %2) #12
  %6 = icmp slt i32 %5, 0
  br i1 %6, label %7, label %8

7:                                                ; preds = %0
  store i64 -1, ptr %1, align 8
  store i32 1, ptr %3, align 4
  br label %19

8:                                                ; preds = %0
  call void @llvm.lifetime.start.p0(i64 8, ptr %4) #12
  %9 = getelementptr inbounds nuw %struct.timespec, ptr %2, i32 0, i32 0
  %10 = load i64, ptr %9, align 8, !tbaa !145
  %11 = mul nsw i64 %10, 1000000
  store i64 %11, ptr %4, align 8, !tbaa !10
  %12 = getelementptr inbounds nuw %struct.timespec, ptr %2, i32 0, i32 1
  %13 = load i64, ptr %12, align 8, !tbaa !147
  %14 = mul nsw i64 %13, 1000000
  %15 = sdiv i64 %14, 1000000000
  %16 = load i64, ptr %4, align 8, !tbaa !10
  %17 = add nsw i64 %16, %15
  store i64 %17, ptr %4, align 8, !tbaa !10
  %18 = load i64, ptr %4, align 8, !tbaa !10
  store i64 %18, ptr %1, align 8
  store i32 1, ptr %3, align 4
  call void @llvm.lifetime.end.p0(i64 8, ptr %4) #12
  br label %19

19:                                               ; preds = %8, %7
  call void @llvm.lifetime.end.p0(i64 16, ptr %2) #12
  %20 = load i64, ptr %1, align 8
  ret i64 %20
}

; Function Attrs: nounwind uwtable
define void @Cnf_SplitSat(ptr noundef %0, i32 noundef %1, i32 noundef %2, i32 noundef %3, i32 noundef %4, i32 noundef %5, i32 noundef %6, i32 noundef %7, i32 noundef %8, i32 noundef %9, i32 noundef %10) #0 {
  %12 = alloca ptr, align 8
  %13 = alloca i32, align 4
  %14 = alloca i32, align 4
  %15 = alloca i32, align 4
  %16 = alloca i32, align 4
  %17 = alloca i32, align 4
  %18 = alloca i32, align 4
  %19 = alloca i32, align 4
  %20 = alloca i32, align 4
  %21 = alloca i32, align 4
  %22 = alloca i32, align 4
  %23 = alloca i64, align 8
  %24 = alloca ptr, align 8
  %25 = alloca i32, align 4
  %26 = alloca i32, align 4
  %27 = alloca i64, align 8
  store ptr %0, ptr %12, align 8, !tbaa !12
  store i32 %1, ptr %13, align 4, !tbaa !3
  store i32 %2, ptr %14, align 4, !tbaa !3
  store i32 %3, ptr %15, align 4, !tbaa !3
  store i32 %4, ptr %16, align 4, !tbaa !3
  store i32 %5, ptr %17, align 4, !tbaa !3
  store i32 %6, ptr %18, align 4, !tbaa !3
  store i32 %7, ptr %19, align 4, !tbaa !3
  store i32 %8, ptr %20, align 4, !tbaa !3
  store i32 %9, ptr %21, align 4, !tbaa !3
  store i32 %10, ptr %22, align 4, !tbaa !3
  call void @llvm.lifetime.start.p0(i64 8, ptr %23) #12
  %28 = call i64 @Abc_Clock()
  store i64 %28, ptr %23, align 8, !tbaa !10
  call void @llvm.lifetime.start.p0(i64 8, ptr %24) #12
  store ptr null, ptr %24, align 8, !tbaa !7
  call void @llvm.lifetime.start.p0(i64 4, ptr %25) #12
  call void @llvm.lifetime.start.p0(i64 4, ptr %26) #12
  store i32 0, ptr %26, align 4, !tbaa !3
  %29 = load i32, ptr %19, align 4, !tbaa !3
  %30 = icmp eq i32 %29, 0
  br i1 %30, label %31, label %32

31:                                               ; preds = %11
  store i32 1000000000, ptr %19, align 4, !tbaa !3
  br label %32

32:                                               ; preds = %31, %11
  %33 = call i32 @Abc_Random(i32 noundef 1)
  store i32 0, ptr %25, align 4, !tbaa !3
  br label %34

34:                                               ; preds = %40, %32
  %35 = load i32, ptr %25, align 4, !tbaa !3
  %36 = load i32, ptr %20, align 4, !tbaa !3
  %37 = icmp slt i32 %35, %36
  br i1 %37, label %38, label %43

38:                                               ; preds = %34
  %39 = call i32 @Abc_Random(i32 noundef 0)
  br label %40

40:                                               ; preds = %38
  %41 = load i32, ptr %25, align 4, !tbaa !3
  %42 = add nsw i32 %41, 1
  store i32 %42, ptr %25, align 4, !tbaa !3
  br label %34, !llvm.loop !143

43:                                               ; preds = %34
  %44 = call i32 @Abc_Random(i32 noundef 0)
  store i32 %44, ptr %26, align 4, !tbaa !3
  store i32 0, ptr %25, align 4, !tbaa !3
  br label %45

45:                                               ; preds = %80, %43
  %46 = load i32, ptr %25, align 4, !tbaa !3
  %47 = load i32, ptr %19, align 4, !tbaa !3
  %48 = icmp slt i32 %46, %47
  br i1 %48, label %49, label %53

49:                                               ; preds = %45
  %50 = load ptr, ptr %24, align 8, !tbaa !7
  %51 = icmp ne ptr %50, null
  %52 = xor i1 %51, true
  br label %53

53:                                               ; preds = %49, %45
  %54 = phi i1 [ false, %45 ], [ %52, %49 ]
  br i1 %54, label %55, label %83

55:                                               ; preds = %53
  call void @llvm.lifetime.start.p0(i64 8, ptr %27) #12
  %56 = call i64 @Abc_Clock()
  store i64 %56, ptr %27, align 8, !tbaa !10
  %57 = load ptr, ptr %12, align 8, !tbaa !12
  %58 = load i32, ptr %18, align 4, !tbaa !3
  %59 = load i32, ptr %13, align 4, !tbaa !3
  %60 = load i32, ptr %14, align 4, !tbaa !3
  %61 = load i32, ptr %15, align 4, !tbaa !3
  %62 = load i32, ptr %16, align 4, !tbaa !3
  %63 = load i32, ptr %26, align 4, !tbaa !3
  %64 = load i32, ptr %21, align 4, !tbaa !3
  %65 = load i32, ptr %22, align 4, !tbaa !3
  call void @Cnf_SplitCnfFile(ptr noundef %57, i32 noundef %58, i32 noundef %59, i32 noundef %60, i32 noundef %61, i32 noundef %62, i32 noundef %63, i32 noundef %64, i32 noundef %65)
  %66 = load i32, ptr %18, align 4, !tbaa !3
  %67 = load i32, ptr %17, align 4, !tbaa !3
  %68 = load i32, ptr %22, align 4, !tbaa !3
  %69 = call ptr @Cnf_RunSolver(i32 noundef %66, i32 noundef %67, i32 noundef %68)
  store ptr %69, ptr %24, align 8, !tbaa !7
  %70 = load i32, ptr %18, align 4, !tbaa !3
  call void @Cnf_SplitCnfCleanup(i32 noundef %70)
  %71 = load i32, ptr %22, align 4, !tbaa !3
  %72 = icmp ne i32 %71, 0
  br i1 %72, label %73, label %79

73:                                               ; preds = %55
  %74 = load i32, ptr %25, align 4, !tbaa !3
  %75 = call i32 (ptr, ...) @printf(ptr noundef @.str.38, i32 noundef %74)
  %76 = call i64 @Abc_Clock()
  %77 = load i64, ptr %27, align 8, !tbaa !10
  %78 = sub nsw i64 %76, %77
  call void @Abc_PrintTime(i32 noundef 0, ptr noundef @.str.25, i64 noundef %78)
  br label %79

79:                                               ; preds = %73, %55
  call void @llvm.lifetime.end.p0(i64 8, ptr %27) #12
  br label %80

80:                                               ; preds = %79
  %81 = load i32, ptr %25, align 4, !tbaa !3
  %82 = add nsw i32 %81, 1
  store i32 %82, ptr %25, align 4, !tbaa !3
  br label %45, !llvm.loop !144

83:                                               ; preds = %53
  %84 = load ptr, ptr %24, align 8, !tbaa !7
  %85 = icmp ne ptr %84, null
  %86 = select i1 %85, ptr @.str.40, ptr @.str.41
  %87 = call i32 (ptr, ...) @printf(ptr noundef @.str.39, ptr noundef %86)
  %88 = call i64 @Abc_Clock()
  %89 = load i64, ptr %23, align 8, !tbaa !10
  %90 = sub nsw i64 %88, %89
  call void @Abc_PrintTime(i32 noundef 0, ptr noundef @.str.42, i64 noundef %90)
  call void @Vec_IntFreeP(ptr noundef %24)
  call void @llvm.lifetime.end.p0(i64 4, ptr %26) #12
  call void @llvm.lifetime.end.p0(i64 4, ptr %25) #12
  call void @llvm.lifetime.end.p0(i64 8, ptr %24) #12
  call void @llvm.lifetime.end.p0(i64 8, ptr %23) #12
  ret void
}