; Function Attrs: nounwind uwtable
define void @Cnf_SplitSat(ptr noundef %0, i32 noundef %1, i32 noundef %2, i32 noundef %3, i32 noundef %4, i32 noundef %5, i32 noundef %6, i32 noundef %7, i32 noundef %8, i32 noundef %9, i32 noundef %10) local_unnamed_addr #0 {
  %12 = alloca %struct.timespec, align 8
  %13 = alloca %struct.timespec, align 8
  %14 = alloca [100 x i8], align 16
  %15 = alloca %struct.timespec, align 8
  %16 = alloca %struct.timespec, align 8
  call void @llvm.lifetime.start.p0(i64 16, ptr nonnull %16) #22
  %17 = call i32 @clock_gettime(i32 noundef 1, ptr noundef nonnull %16) #22
  %18 = icmp slt i32 %17, 0
  br i1 %18, label %Abc_Clock.exit, label %19

19:                                               ; preds = %11
  %20 = load i64, ptr %16, align 8, !tbaa !3
  %.neg33 = mul i64 %20, -1000000
  %21 = getelementptr inbounds nuw i8, ptr %16, i64 8
  %22 = load i64, ptr %21, align 8, !tbaa !8
  %.neg = sdiv i64 %22, -1000
  %.neg34 = add i64 %.neg, %.neg33
  br label %Abc_Clock.exit

Abc_Clock.exit:                                   ; preds = %11, %19
  %.0.i.neg = phi i64 [ %.neg34, %19 ], [ 1, %11 ]
  call void @llvm.lifetime.end.p0(i64 16, ptr nonnull %16) #22
  %23 = icmp eq i32 %7, 0
  %spec.store.select = select i1 %23, i32 1000000000, i32 %7
  %24 = call i32 @Abc_Random(i32 noundef 1) #22
  %25 = icmp sgt i32 %8, 0
  br i1 %25, label %.lr.ph, label %._crit_edge

.lr.ph:                                           ; preds = %Abc_Clock.exit, %.lr.ph
  %.038 = phi i32 [ %27, %.lr.ph ], [ 0, %Abc_Clock.exit ]
  %26 = call i32 @Abc_Random(i32 noundef 0) #22
  %27 = add nuw nsw i32 %.038, 1
  %exitcond.not = icmp eq i32 %27, %8
  br i1 %exitcond.not, label %._crit_edge, label %.lr.ph, !llvm.loop !127

._crit_edge:                                      ; preds = %.lr.ph, %Abc_Clock.exit
  %28 = call i32 @Abc_Random(i32 noundef 0) #22
  %29 = icmp sgt i32 %spec.store.select, 0
  br i1 %29, label %.lr.ph41, label %._crit_edge42.thread

.lr.ph41:                                         ; preds = %._crit_edge
  %30 = getelementptr inbounds nuw i8, ptr %15, i64 8
  %31 = icmp sgt i32 %6, 0
  %.not23 = icmp eq i32 %10, 0
  %32 = getelementptr inbounds nuw i8, ptr %13, i64 8
  br i1 %.not23, label %.lr.ph41.split.us, label %.lr.ph41.split

.lr.ph41.split.us:                                ; preds = %.lr.ph41
  br i1 %31, label %.lr.ph41.split.us.split.us, label %.lr.ph41.split.us.split

.lr.ph41.split.us.split.us:                       ; preds = %.lr.ph41.split.us, %Cnf_SplitCnfCleanup.exit.loopexit.us.us
  %.139.us.us = phi i32 [ %38, %Cnf_SplitCnfCleanup.exit.loopexit.us.us ], [ 0, %.lr.ph41.split.us ]
  call void @llvm.lifetime.start.p0(i64 16, ptr nonnull %15) #22
  %33 = call i32 @clock_gettime(i32 noundef 1, ptr noundef nonnull %15) #22
  call void @llvm.lifetime.end.p0(i64 16, ptr nonnull %15) #22
  call void @Cnf_SplitCnfFile(ptr noundef %0, i32 noundef %6, i32 noundef %1, i32 noundef %2, i32 noundef %3, i32 noundef %4, i32 noundef %28, i32 noundef %9, i32 noundef 0)
  %34 = call ptr @Cnf_RunSolver(i32 noundef %6, i32 noundef %5, i32 noundef 0)
  call void @llvm.lifetime.start.p0(i64 100, ptr nonnull %14) #22
  br label %.lr.ph.i.us.us

.lr.ph.i.us.us:                                   ; preds = %.lr.ph41.split.us.split.us, %.lr.ph.i.us.us
  %.04.i.us.us = phi i32 [ %37, %.lr.ph.i.us.us ], [ 0, %.lr.ph41.split.us.split.us ]
  %35 = call i32 (ptr, ptr, ...) @sprintf(ptr noundef nonnull dereferenceable(1) %14, ptr noundef nonnull dereferenceable(1) @.str, i32 noundef %.04.i.us.us) #22
  %36 = call i32 @unlink(ptr noundef nonnull %14) #22
  %37 = add nuw nsw i32 %.04.i.us.us, 1
  %exitcond.not.i.us.us = icmp eq i32 %37, %6
  br i1 %exitcond.not.i.us.us, label %Cnf_SplitCnfCleanup.exit.loopexit.us.us, label %.lr.ph.i.us.us, !llvm.loop !126

Cnf_SplitCnfCleanup.exit.loopexit.us.us:          ; preds = %.lr.ph.i.us.us
  call void @llvm.lifetime.end.p0(i64 100, ptr nonnull %14) #22
  %38 = add nuw nsw i32 %.139.us.us, 1
  %39 = icmp slt i32 %38, %spec.store.select
  %.not.us.us = icmp eq ptr %34, null
  %40 = select i1 %39, i1 %.not.us.us, i1 false
  br i1 %40, label %.lr.ph41.split.us.split.us, label %._crit_edge42, !llvm.loop !128

.lr.ph41.split.us.split:                          ; preds = %.lr.ph41.split.us, %.lr.ph41.split.us.split
  %.139.us = phi i32 [ %43, %.lr.ph41.split.us.split ], [ 0, %.lr.ph41.split.us ]
  call void @llvm.lifetime.start.p0(i64 16, ptr nonnull %15) #22
  %41 = call i32 @clock_gettime(i32 noundef 1, ptr noundef nonnull %15) #22
  call void @llvm.lifetime.end.p0(i64 16, ptr nonnull %15) #22
  call void @Cnf_SplitCnfFile(ptr noundef %0, i32 noundef %6, i32 noundef %1, i32 noundef %2, i32 noundef %3, i32 noundef %4, i32 noundef %28, i32 noundef %9, i32 noundef 0)
  %42 = call ptr @Cnf_RunSolver(i32 noundef %6, i32 noundef %5, i32 noundef 0)
  %43 = add nuw nsw i32 %.139.us, 1
  %44 = icmp slt i32 %43, %spec.store.select
  %.not.us = icmp eq ptr %42, null
  %45 = select i1 %44, i1 %.not.us, i1 false
  br i1 %45, label %.lr.ph41.split.us.split, label %._crit_edge42, !llvm.loop !128

.lr.ph41.split:                                   ; preds = %.lr.ph41, %Abc_Clock.exit27
  %.139 = phi i32 [ %67, %Abc_Clock.exit27 ], [ 0, %.lr.ph41 ]
  call void @llvm.lifetime.start.p0(i64 16, ptr nonnull %15) #22
  %46 = call i32 @clock_gettime(i32 noundef 1, ptr noundef nonnull %15) #22
  %47 = icmp slt i32 %46, 0
  br i1 %47, label %Abc_Clock.exit25, label %48

48:                                               ; preds = %.lr.ph41.split
  %49 = load i64, ptr %15, align 8, !tbaa !3
  %.neg36 = mul i64 %49, -1000000
  %50 = load i64, ptr %30, align 8, !tbaa !8
  %.neg35 = sdiv i64 %50, -1000
  %.neg37 = add i64 %.neg35, %.neg36
  br label %Abc_Clock.exit25

Abc_Clock.exit25:                                 ; preds = %.lr.ph41.split, %48
  %.0.i24.neg = phi i64 [ %.neg37, %48 ], [ 1, %.lr.ph41.split ]
  call void @llvm.lifetime.end.p0(i64 16, ptr nonnull %15) #22
  call void @Cnf_SplitCnfFile(ptr noundef %0, i32 noundef %6, i32 noundef %1, i32 noundef %2, i32 noundef %3, i32 noundef %4, i32 noundef %28, i32 noundef %9, i32 noundef %10)
  %51 = call ptr @Cnf_RunSolver(i32 noundef %6, i32 noundef %5, i32 noundef %10)
  call void @llvm.lifetime.start.p0(i64 100, ptr nonnull %14) #22
  br i1 %31, label %.lr.ph.i, label %Cnf_SplitCnfCleanup.exit

.lr.ph.i:                                         ; preds = %Abc_Clock.exit25, %.lr.ph.i
  %.04.i = phi i32 [ %54, %.lr.ph.i ], [ 0, %Abc_Clock.exit25 ]
  %52 = call i32 (ptr, ptr, ...) @sprintf(ptr noundef nonnull dereferenceable(1) %14, ptr noundef nonnull dereferenceable(1) @.str, i32 noundef %.04.i) #22
  %53 = call i32 @unlink(ptr noundef nonnull %14) #22
  %54 = add nuw nsw i32 %.04.i, 1
  %exitcond.not.i = icmp eq i32 %54, %6
  br i1 %exitcond.not.i, label %Cnf_SplitCnfCleanup.exit, label %.lr.ph.i, !llvm.loop !126

Cnf_SplitCnfCleanup.exit:                         ; preds = %.lr.ph.i, %Abc_Clock.exit25
  call void @llvm.lifetime.end.p0(i64 100, ptr nonnull %14) #22
  %55 = call i32 (ptr, ...) @printf(ptr noundef nonnull dereferenceable(1) @.str.38, i32 noundef %.139)
  call void @llvm.lifetime.start.p0(i64 16, ptr nonnull %13) #22
  %56 = call i32 @clock_gettime(i32 noundef 1, ptr noundef nonnull %13) #22
  %57 = icmp slt i32 %56, 0
  br i1 %57, label %Abc_Clock.exit27, label %58

58:                                               ; preds = %Cnf_SplitCnfCleanup.exit
  %59 = load i64, ptr %13, align 8, !tbaa !3
  %60 = mul nsw i64 %59, 1000000
  %61 = load i64, ptr %32, align 8, !tbaa !8
  %62 = sdiv i64 %61, 1000
  %63 = add nsw i64 %62, %60
  br label %Abc_Clock.exit27

Abc_Clock.exit27:                                 ; preds = %Cnf_SplitCnfCleanup.exit, %58
  %.0.i26 = phi i64 [ %63, %58 ], [ -1, %Cnf_SplitCnfCleanup.exit ]
  call void @llvm.lifetime.end.p0(i64 16, ptr nonnull %13) #22
  %64 = add i64 %.0.i26, %.0.i24.neg
  call void (i32, ptr, ...) @Abc_Print(i32 poison, ptr noundef nonnull @.str.43, ptr noundef nonnull @.str.25)
  %65 = sitofp i64 %64 to double
  %66 = fdiv double %65, 1.000000e+06
  call void (i32, ptr, ...) @Abc_Print(i32 poison, ptr noundef nonnull @.str.44, double noundef %66)
  %67 = add nuw nsw i32 %.139, 1
  %68 = icmp slt i32 %67, %spec.store.select
  %.not = icmp eq ptr %51, null
  %69 = select i1 %68, i1 %.not, i1 false
  br i1 %69, label %.lr.ph41.split, label %._crit_edge42, !llvm.loop !128

._crit_edge42:                                    ; preds = %Abc_Clock.exit27, %.lr.ph41.split.us.split, %Cnf_SplitCnfCleanup.exit.loopexit.us.us
  %.032.lcssa = phi ptr [ %34, %Cnf_SplitCnfCleanup.exit.loopexit.us.us ], [ %42, %.lr.ph41.split.us.split ], [ %51, %Abc_Clock.exit27 ]
  %.not.lcssa = phi i1 [ %.not.us.us, %Cnf_SplitCnfCleanup.exit.loopexit.us.us ], [ %.not.us, %.lr.ph41.split.us.split ], [ %.not, %Abc_Clock.exit27 ]
  %cond.fr = freeze i1 %.not.lcssa
  %spec.select = select i1 %cond.fr, ptr @.str.41, ptr @.str.40
  br label %._crit_edge42.thread

._crit_edge42.thread:                             ; preds = %._crit_edge42, %._crit_edge
  %.not.lcssa57 = phi i1 [ true, %._crit_edge ], [ %cond.fr, %._crit_edge42 ]
  %.032.lcssa55 = phi ptr [ null, %._crit_edge ], [ %.032.lcssa, %._crit_edge42 ]
  %70 = phi ptr [ @.str.41, %._crit_edge ], [ %spec.select, %._crit_edge42 ]
  %71 = call i32 (ptr, ...) @printf(ptr noundef nonnull dereferenceable(1) @.str.39, ptr noundef nonnull %70)
  call void @llvm.lifetime.start.p0(i64 16, ptr nonnull %12) #22
  %72 = call i32 @clock_gettime(i32 noundef 1, ptr noundef nonnull %12) #22
  %73 = icmp slt i32 %72, 0
  br i1 %73, label %Abc_Clock.exit29, label %74

74:                                               ; preds = %._crit_edge42.thread
  %75 = load i64, ptr %12, align 8, !tbaa !3
  %76 = mul nsw i64 %75, 1000000
  %77 = getelementptr inbounds nuw i8, ptr %12, i64 8
  %78 = load i64, ptr %77, align 8, !tbaa !8
  %79 = sdiv i64 %78, 1000
  %80 = add nsw i64 %79, %76
  br label %Abc_Clock.exit29

Abc_Clock.exit29:                                 ; preds = %._crit_edge42.thread, %74
  %.0.i28 = phi i64 [ %80, %74 ], [ -1, %._crit_edge42.thread ]
  call void @llvm.lifetime.end.p0(i64 16, ptr nonnull %12) #22
  %81 = add i64 %.0.i28, %.0.i.neg
  call void (i32, ptr, ...) @Abc_Print(i32 poison, ptr noundef nonnull @.str.43, ptr noundef nonnull @.str.42)
  %82 = sitofp i64 %81 to double
  %83 = fdiv double %82, 1.000000e+06
  call void (i32, ptr, ...) @Abc_Print(i32 poison, ptr noundef nonnull @.str.44, double noundef %83)
  br i1 %.not.lcssa57, label %Vec_IntFreeP.exit, label %84

84:                                               ; preds = %Abc_Clock.exit29
  %85 = getelementptr inbounds nuw i8, ptr %.032.lcssa55, i64 8
  %86 = load ptr, ptr %85, align 8, !tbaa !29
  %.not.i = icmp eq ptr %86, null
  br i1 %.not.i, label %87, label %.thread.i

.thread.i:                                        ; preds = %84
  call void @free(ptr noundef nonnull %86) #22
  br label %87

87:                                               ; preds = %.thread.i, %84
  call void @free(ptr noundef nonnull %.032.lcssa55) #22
  br label %Vec_IntFreeP.exit

Vec_IntFreeP.exit:                                ; preds = %Abc_Clock.exit29, %87
  ret void
}